; Function Attrs: nofree norecurse nosync nounwind memory(argmem: readwrite) uwtable
define internal void @h264_h_loop_filter_luma_8_c(ptr noundef captures(none) %0, i64 noundef %1, i32 noundef %2, i32 noundef %3, ptr noundef readonly captures(none) %4) #1 {
  %6 = shl nsw i64 %1, 2
  br label %7

7:                                                ; preds = %5, %.loopexit
  %indvars.iv = phi i64 [ 0, %5 ], [ %indvars.iv.next, %.loopexit ]
  %.099.i7 = phi ptr [ %0, %5 ], [ %.1100.i, %.loopexit ]
  %8 = getelementptr inbounds nuw i8, ptr %4, i64 %indvars.iv
  %9 = load i8, ptr %8, align 1, !tbaa !42
  %10 = sext i8 %9 to i32
  %11 = icmp slt i8 %9, 0
  br i1 %11, label %14, label %.preheader

.preheader:                                       ; preds = %7
  %.not.i = icmp eq i8 %9, 0
  %12 = sub nsw i32 0, %10
  %13 = add nuw nsw i32 %10, 1
  br label %16

14:                                               ; preds = %7
  %15 = getelementptr inbounds i8, ptr %.099.i7, i64 %6
  br label %.loopexit

16:                                               ; preds = %.preheader, %91
  %.2.i5 = phi ptr [ %.099.i7, %.preheader ], [ %92, %91 ]
  %.0102.i4 = phi i32 [ 0, %.preheader ], [ %93, %91 ]
  %17 = getelementptr inbounds i8, ptr %.2.i5, i64 -1
  %18 = load i8, ptr %17, align 1, !tbaa !42
  %19 = zext i8 %18 to i32
  %20 = getelementptr inbounds i8, ptr %.2.i5, i64 -2
  %21 = load i8, ptr %20, align 1, !tbaa !42
  %22 = zext i8 %21 to i32
  %23 = getelementptr inbounds i8, ptr %.2.i5, i64 -3
  %24 = load i8, ptr %23, align 1, !tbaa !42
  %25 = zext i8 %24 to i32
  %26 = load i8, ptr %.2.i5, align 1, !tbaa !42
  %27 = zext i8 %26 to i32
  %28 = getelementptr inbounds nuw i8, ptr %.2.i5, i64 1
  %29 = load i8, ptr %28, align 1, !tbaa !42
  %30 = zext i8 %29 to i32
  %31 = getelementptr inbounds nuw i8, ptr %.2.i5, i64 2
  %32 = load i8, ptr %31, align 1, !tbaa !42
  %33 = zext i8 %32 to i32
  %34 = sub nsw i32 %19, %27
  %35 = tail call i32 @llvm.abs.i32(i32 %34, i1 true)
  %36 = icmp slt i32 %35, %2
  br i1 %36, label %37, label %91

37:                                               ; preds = %16
  %38 = sub nsw i32 %22, %19
  %39 = tail call i32 @llvm.abs.i32(i32 %38, i1 true)
  %40 = icmp slt i32 %39, %3
  br i1 %40, label %41, label %91

41:                                               ; preds = %37
  %42 = sub nsw i32 %30, %27
  %43 = tail call i32 @llvm.abs.i32(i32 %42, i1 true)
  %44 = icmp samesign ult i32 %43, %3
  br i1 %44, label %45, label %91

45:                                               ; preds = %41
  %46 = sub nsw i32 %25, %19
  %47 = tail call i32 @llvm.abs.i32(i32 %46, i1 true)
  %48 = icmp samesign uge i32 %47, %3
  %brmerge = or i1 %48, %.not.i
  %.mux = select i1 %48, i32 %10, i32 %13
  br i1 %brmerge, label %59, label %49

49:                                               ; preds = %45
  %50 = add nuw nsw i32 %19, 1
  %51 = add nuw nsw i32 %50, %27
  %52 = lshr i32 %51, 1
  %53 = add nuw nsw i32 %52, %25
  %54 = lshr i32 %53, 1
  %55 = sub nsw i32 %54, %22
  %56 = icmp slt i32 %55, %12
  %..i118.i = tail call i32 @llvm.smin.i32(i32 %55, i32 %10)
  %.0.i119.i = select i1 %56, i32 %12, i32 %..i118.i
  %57 = trunc i32 %.0.i119.i to i8
  %58 = add i8 %21, %57
  store i8 %58, ptr %20, align 1, !tbaa !42
  br label %59

59:                                               ; preds = %45, %49
  %.0.i = phi i32 [ %.mux, %45 ], [ %13, %49 ]
  %60 = sub nsw i32 %33, %27
  %61 = tail call i32 @llvm.abs.i32(i32 %60, i1 true)
  %62 = icmp samesign ult i32 %61, %3
  br i1 %62, label %63, label %76

63:                                               ; preds = %59
  br i1 %.not.i, label %74, label %64

64:                                               ; preds = %63
  %65 = add nuw nsw i32 %19, 1
  %66 = add nuw nsw i32 %65, %27
  %67 = lshr i32 %66, 1
  %68 = add nuw nsw i32 %67, %33
  %69 = lshr i32 %68, 1
  %70 = sub nsw i32 %69, %30
  %71 = icmp slt i32 %70, %12
  %..i116.i = tail call i32 @llvm.smin.i32(i32 %70, i32 %10)
  %.0.i117.i = select i1 %71, i32 %12, i32 %..i116.i
  %72 = trunc i32 %.0.i117.i to i8
  %73 = add i8 %29, %72
  store i8 %73, ptr %28, align 1, !tbaa !42
  br label %74

74:                                               ; preds = %64, %63
  %75 = add nuw nsw i32 %.0.i, 1
  br label %76

76:                                               ; preds = %74, %59
  %.1.i = phi i32 [ %75, %74 ], [ %.0.i, %59 ]
  %77 = sub nsw i32 %27, %19
  %78 = shl nsw i32 %77, 2
  %79 = add nuw nsw i32 %22, 4
  %80 = sub nsw i32 %79, %30
  %81 = add nsw i32 %80, %78
  %82 = ashr i32 %81, 3
  %83 = sub nsw i32 0, %.1.i
  %84 = icmp slt i32 %82, %83
  %..i.i = tail call i32 @llvm.smin.i32(i32 %82, i32 %.1.i)
  %.0.i.i = select i1 %84, i32 %83, i32 %..i.i
  %85 = add nsw i32 %.0.i.i, %19
  %.not.i121.i = icmp ult i32 %85, 256
  %isnotneg.i122.i = icmp sgt i32 %85, -1
  %86 = sext i1 %isnotneg.i122.i to i8
  %87 = trunc nuw i32 %85 to i8
  %.0.i123.i = select i1 %.not.i121.i, i8 %87, i8 %86
  store i8 %.0.i123.i, ptr %17, align 1, !tbaa !42
  %88 = sub nsw i32 %27, %.0.i.i
  %.not.i.i = icmp ult i32 %88, 256
  %isnotneg.i.i = icmp sgt i32 %88, -1
  %89 = sext i1 %isnotneg.i.i to i8
  %90 = trunc nuw i32 %88 to i8
  %.0.i120.i = select i1 %.not.i.i, i8 %90, i8 %89
  store i8 %.0.i120.i, ptr %.2.i5, align 1, !tbaa !42
  br label %91

91:                                               ; preds = %76, %41, %37, %16
  %92 = getelementptr inbounds i8, ptr %.2.i5, i64 %1
  %93 = add nuw nsw i32 %.0102.i4, 1
  %exitcond.not = icmp eq i32 %93, 4
  br i1 %exitcond.not, label %.loopexit, label %16, !llvm.loop !109

.loopexit:                                        ; preds = %91, %14
  %.1100.i = phi ptr [ %15, %14 ], [ %92, %91 ]
  %indvars.iv.next = add nuw nsw i64 %indvars.iv, 1
  %exitcond9.not = icmp eq i64 %indvars.iv.next, 4
  br i1 %exitcond9.not, label %h264_loop_filter_luma_8_c.exit, label %7, !llvm.loop !110

h264_loop_filter_luma_8_c.exit:                   ; preds = %.loopexit
  ret void
}